target datalayout = "e-m:e-p270:32:32-p271:32:32-p272:64:64-i64:64-i128:128-f80:128-n8:16:32:64-S128"
target triple = "x86_64-pc-linux-gnu"

%struct.Node = type { i32 }
%struct.SortGroupClause = type { i32, i32, i32, i32, i8, i8, i8 }

; Function Attrs: inlinehint nounwind uwtable
define internal ptr @newNode(i64 noundef %0, i32 noundef %1) #3 {
  %3 = alloca i64, align 8
  %4 = alloca i32, align 4
  %5 = alloca ptr, align 8
  store i64 %0, ptr %3, align 8
  store i32 %1, ptr %4, align 4
  call void @llvm.lifetime.start.p0(i64 8, ptr %5) #8
  %6 = load i64, ptr %3, align 8
  %7 = call ptr @palloc0(i64 noundef %6)
  store ptr %7, ptr %5, align 8
  %8 = load i32, ptr %4, align 4
  %9 = load ptr, ptr %5, align 8
  %10 = getelementptr inbounds nuw %struct.Node, ptr %9, i32 0, i32 0
  store i32 %8, ptr %10, align 4
  %11 = load ptr, ptr %5, align 8
  call void @llvm.lifetime.end.p0(i64 8, ptr %5) #8
  ret ptr %11
}

; Function Attrs: nounwind uwtable
define dso_local ptr @makeSortGroupClauseForSetOp(i32 noundef %0, i1 noundef zeroext %1) #0 {
  %3 = alloca i32, align 4
  %4 = alloca i8, align 1
  %5 = alloca ptr, align 8
  %6 = alloca i32, align 4
  %7 = alloca i32, align 4
  %8 = alloca i8, align 1
  store i32 %0, ptr %3, align 4
  %9 = zext i1 %1 to i8
  store i8 %9, ptr %4, align 1
  call void @llvm.lifetime.start.p0(i64 8, ptr %5) #8
  %10 = call ptr @newNode(i64 noundef 20, i32 noundef 106)
  store ptr %10, ptr %5, align 8
  call void @llvm.lifetime.start.p0(i64 4, ptr %6) #8
  call void @llvm.lifetime.start.p0(i64 4, ptr %7) #8
  call void @llvm.lifetime.start.p0(i64 1, ptr %8) #8
  %11 = load i32, ptr %3, align 4
  call void @get_sort_group_operators(i32 noundef %11, i1 noundef zeroext false, i1 noundef zeroext true, i1 noundef zeroext false, ptr noundef %6, ptr noundef %7, ptr noundef null, ptr noundef %8)
  %12 = load i8, ptr %4, align 1, !range !4, !noundef !5
  %13 = trunc i8 %12 to i1
  br i1 %13, label %14, label %21

14:                                               ; preds = %2
  %15 = load i32, ptr %3, align 4
  %16 = icmp eq i32 %15, 2249
  br i1 %16, label %20, label %17

17:                                               ; preds = %14
  %18 = load i32, ptr %3, align 4
  %19 = icmp eq i32 %18, 2287
  br i1 %19, label %20, label %21

20:                                               ; preds = %17, %14
  store i8 1, ptr %8, align 1
  br label %21

21:                                               ; preds = %20, %17, %2
  %22 = load ptr, ptr %5, align 8
  %23 = getelementptr inbounds nuw %struct.SortGroupClause, ptr %22, i32 0, i32 1
  store i32 0, ptr %23, align 4
  %24 = load i32, ptr %7, align 4
  %25 = load ptr, ptr %5, align 8
  %26 = getelementptr inbounds nuw %struct.SortGroupClause, ptr %25, i32 0, i32 2
  store i32 %24, ptr %26, align 4
  %27 = load i32, ptr %6, align 4
  %28 = load ptr, ptr %5, align 8
  %29 = getelementptr inbounds nuw %struct.SortGroupClause, ptr %28, i32 0, i32 3
  store i32 %27, ptr %29, align 4
  %30 = load ptr, ptr %5, align 8
  %31 = getelementptr inbounds nuw %struct.SortGroupClause, ptr %30, i32 0, i32 4
  store i8 0, ptr %31, align 4
  %32 = load ptr, ptr %5, align 8
  %33 = getelementptr inbounds nuw %struct.SortGroupClause, ptr %32, i32 0, i32 5
  store i8 0, ptr %33, align 1
  %34 = load i8, ptr %8, align 1, !range !4, !noundef !5
  %35 = trunc i8 %34 to i1
  %36 = load ptr, ptr %5, align 8
  %37 = getelementptr inbounds nuw %struct.SortGroupClause, ptr %36, i32 0, i32 6
  %38 = zext i1 %35 to i8
  store i8 %38, ptr %37, align 2
  %39 = load ptr, ptr %5, align 8
  call void @llvm.lifetime.end.p0(i64 1, ptr %8) #8
  call void @llvm.lifetime.end.p0(i64 4, ptr %7) #8
  call void @llvm.lifetime.end.p0(i64 4, ptr %6) #8
  call void @llvm.lifetime.end.p0(i64 8, ptr %5) #8
  ret ptr %39
}