; Function Attrs: nounwind uwtable
define dso_local noundef ptr @makeSortGroupClauseForSetOp(i32 noundef %0, i1 noundef zeroext %1) local_unnamed_addr #0 {
  %3 = alloca i32, align 4
  %4 = alloca i32, align 4
  %5 = alloca i8, align 1
  %6 = tail call noundef ptr @palloc0(i64 noundef 20) #11
  store i32 106, ptr %6, align 4
  call void @llvm.lifetime.start.p0(i64 4, ptr nonnull %3) #11
  call void @llvm.lifetime.start.p0(i64 4, ptr nonnull %4) #11
  call void @llvm.lifetime.start.p0(i64 1, ptr nonnull %5) #11
  call void @get_sort_group_operators(i32 noundef %0, i1 noundef zeroext false, i1 noundef zeroext true, i1 noundef zeroext false, ptr noundef nonnull %3, ptr noundef nonnull %4, ptr noundef null, ptr noundef nonnull %5) #11
  br i1 %1, label %7, label %9

7:                                                ; preds = %2
  switch i32 %0, label %9 [
    i32 2287, label %8
    i32 2249, label %8
  ]

8:                                                ; preds = %7, %7
  store i8 1, ptr %5, align 1
  br label %9

9:                                                ; preds = %7, %8, %2
  %10 = getelementptr inbounds nuw i8, ptr %6, i64 4
  store i32 0, ptr %10, align 4
  %11 = load i32, ptr %4, align 4
  %12 = getelementptr inbounds nuw i8, ptr %6, i64 8
  store i32 %11, ptr %12, align 4
  %13 = load i32, ptr %3, align 4
  %14 = getelementptr inbounds nuw i8, ptr %6, i64 12
  store i32 %13, ptr %14, align 4
  %15 = getelementptr inbounds nuw i8, ptr %6, i64 16
  store i8 0, ptr %15, align 4
  %16 = getelementptr inbounds nuw i8, ptr %6, i64 17
  store i8 0, ptr %16, align 1
  %17 = load i8, ptr %5, align 1, !range !5, !noundef !4
  %18 = getelementptr inbounds nuw i8, ptr %6, i64 18
  store i8 %17, ptr %18, align 2
  call void @llvm.lifetime.end.p0(i64 1, ptr nonnull %5) #11
  call void @llvm.lifetime.end.p0(i64 4, ptr nonnull %4) #11
  call void @llvm.lifetime.end.p0(i64 4, ptr nonnull %3) #11
  ret ptr %6
}